target datalayout = "e-m:e-p270:32:32-p271:32:32-p272:64:64-i64:64-i128:128-f80:128-n8:16:32:64-S128"
target triple = "x86_64-pc-linux-gnu"

%struct.OutputPluginCallbacks = type { ptr, ptr, ptr, ptr, ptr, ptr, ptr, ptr, ptr, ptr, ptr, ptr, ptr, ptr, ptr, ptr, ptr, ptr, ptr, ptr, ptr }
%struct.LogicalDecodingContext = type { ptr, ptr, ptr, ptr, ptr, i8, %struct.OutputPluginCallbacks, %struct.OutputPluginOptions, ptr, ptr, ptr, ptr, ptr, ptr, ptr, i8, i8, i8, i8, i8, i64, i32, i8, i8 }
%struct.OutputPluginOptions = type { i32, i8 }

; Function Attrs: nounwind uwtable
define internal void @pgoutput_rollback_prepared_txn(ptr noundef %0, ptr noundef %1, i64 noundef %2, i64 noundef %3) #0 {
  %5 = alloca ptr, align 8
  %6 = alloca ptr, align 8
  %7 = alloca i64, align 8
  %8 = alloca i64, align 8
  store ptr %0, ptr %5, align 8
  store ptr %1, ptr %6, align 8
  store i64 %2, ptr %7, align 8
  store i64 %3, ptr %8, align 8
  %9 = load ptr, ptr %5, align 8
  call void @OutputPluginUpdateProgress(ptr noundef %9, i1 noundef zeroext false)
  %10 = load ptr, ptr %5, align 8
  call void @OutputPluginPrepareWrite(ptr noundef %10, i1 noundef zeroext true)
  %11 = load ptr, ptr %5, align 8
  %12 = getelementptr inbounds nuw %struct.LogicalDecodingContext, ptr %11, i32 0, i32 12
  %13 = load ptr, ptr %12, align 8
  %14 = load ptr, ptr %6, align 8
  %15 = load i64, ptr %7, align 8
  %16 = load i64, ptr %8, align 8
  call void @logicalrep_write_rollback_prepared(ptr noundef %13, ptr noundef %14, i64 noundef %15, i64 noundef %16)
  %17 = load ptr, ptr %5, align 8
  call void @OutputPluginWrite(ptr noundef %17, i1 noundef zeroext true)
  ret void
}