; Function Attrs: nounwind uwtable
define internal void @pgoutput_rollback_prepared_txn(ptr noundef %0, ptr noundef %1, i64 noundef %2, i64 noundef %3) #2 {
  tail call void @OutputPluginUpdateProgress(ptr noundef %0, i1 noundef zeroext false) #13
  tail call void @OutputPluginPrepareWrite(ptr noundef %0, i1 noundef zeroext true) #13
  %5 = getelementptr inbounds nuw i8, ptr %0, i64 256
  %6 = load ptr, ptr %5, align 8
  tail call void @logicalrep_write_rollback_prepared(ptr noundef %6, ptr noundef %1, i64 noundef %2, i64 noundef %3) #13
  tail call void @OutputPluginWrite(ptr noundef %0, i1 noundef zeroext true) #13
  ret void
}